; Function Attrs: uwtable
define void @_ZN9grpc_core8channelz12ChannelTrace10TraceEventC2ENS1_8SeverityERK10grpc_slice(ptr noundef nonnull writeonly align 8 captures(none) dereferenceable(80) initializes((0, 20), (24, 80)) %0, i32 noundef %1, ptr noundef nonnull readonly align 8 captures(none) dereferenceable(32) %2) unnamed_addr #3 align 2 personality ptr @__gxx_personality_v0 {
  %4 = alloca %"class.grpc_core::Timestamp", align 8
  call void @llvm.lifetime.start.p0(i64 8, ptr nonnull %4) #23
  %.not.i.i.i = icmp eq ptr @_ZTHN9grpc_core9Timestamp25thread_local_time_source_E, null
  br i1 %.not.i.i.i, label %_ZN9grpc_core9Timestamp3NowEv.exit.i, label %5

5:                                                ; preds = %3
  tail call void @_ZTHN9grpc_core9Timestamp25thread_local_time_source_E()
  br label %_ZN9grpc_core9Timestamp3NowEv.exit.i

_ZN9grpc_core9Timestamp3NowEv.exit.i:             ; preds = %5, %3
  %6 = tail call noundef align 8 ptr @llvm.threadlocal.address.p0(ptr align 8 @_ZN9grpc_core9Timestamp25thread_local_time_source_E)
  %7 = load ptr, ptr %6, align 8, !tbaa !3
  %8 = load ptr, ptr %7, align 8, !tbaa !8
  %9 = load ptr, ptr %8, align 8
  %10 = tail call i64 %9(ptr noundef nonnull align 8 dereferenceable(8) %7)
  store i64 %10, ptr %4, align 8
  %11 = call { i64, i64 } @_ZNK9grpc_core9Timestamp11as_timespecE14gpr_clock_type(ptr noundef nonnull align 8 dereferenceable(8) %4, i32 noundef 1)
  %12 = extractvalue { i64, i64 } %11, 0
  store i64 %12, ptr %0, align 8
  %13 = getelementptr inbounds nuw i8, ptr %0, i64 8
  %14 = extractvalue { i64, i64 } %11, 1
  store i64 %14, ptr %13, align 8
  call void @llvm.lifetime.end.p0(i64 8, ptr nonnull %4) #23
  %15 = getelementptr inbounds nuw i8, ptr %0, i64 16
  store i32 %1, ptr %15, align 8, !tbaa !10
  %16 = getelementptr inbounds nuw i8, ptr %0, i64 24
  call void @llvm.memcpy.p0.p0.i64(ptr noundef nonnull align 8 dereferenceable(32) %16, ptr noundef nonnull readonly align 8 dereferenceable(32) %2, i64 32, i1 false), !tbaa.struct !22
  %17 = getelementptr inbounds nuw i8, ptr %0, i64 56
  %18 = call noundef i64 @_Z23grpc_slice_memory_usage10grpc_slice(ptr noundef nonnull byval(%struct.grpc_slice) align 8 %2)
  %19 = add i64 %18, 80
  store i64 %19, ptr %17, align 8, !tbaa !25
  %20 = getelementptr inbounds nuw i8, ptr %0, i64 64
  call void @llvm.memset.p0.i64(ptr noundef nonnull align 8 dereferenceable(16) %20, i8 0, i64 16, i1 false)
  ret void
}